; Function Attrs: mustprogress nofree norecurse nosync nounwind null_pointer_is_valid sspstrong willreturn memory(readwrite, inaccessiblemem: none) uwtable
define internal void @children_foreach_hide_func(ptr noundef readonly captures(address_is_null) %0, ptr noundef captures(none) %1) #6 {
  %3 = load i32, ptr %1, align 4
  %4 = icmp ne i32 %3, 0
  %.not.i = icmp eq ptr %0, null
  %or.cond = or i1 %.not.i, %4
  br i1 %or.cond, label %proto_item_set_hidden.exit, label %5

5:                                                ; preds = %2
  %6 = getelementptr inbounds nuw i8, ptr %0, i64 40
  %7 = load ptr, ptr %6, align 8
  %.not5.i = icmp eq ptr %7, null
  br i1 %.not5.i, label %proto_item_set_hidden.exit, label %8

8:                                                ; preds = %5
  %9 = getelementptr inbounds nuw i8, ptr %7, i64 28
  %10 = load i32, ptr %9, align 4
  %11 = or i32 %10, 1
  store i32 %11, ptr %9, align 4
  %.pre = load i32, ptr %1, align 4
  br label %proto_item_set_hidden.exit

proto_item_set_hidden.exit:                       ; preds = %8, %5, %2
  %12 = phi i32 [ %.pre, %8 ], [ 0, %5 ], [ %3, %2 ]
  %13 = add i32 %12, 1
  store i32 %13, ptr %1, align 4
  ret void
}